; Function Attrs: mustprogress uwtable
define dso_local void @_ZN7cmCTest22SetOutputJUnitFileNameERKNSt7__cxx1112basic_stringIcSt11char_traitsIcESaIcEEE(ptr nocapture noundef nonnull readonly align 8 dereferenceable(8) %0, ptr noundef nonnull align 8 dereferenceable(32) %1) local_unnamed_addr #3 align 2 {
  %3 = load ptr, ptr %0, align 8
  %4 = getelementptr inbounds i8, ptr %3, i64 3376
  tail call void @_ZN18cmCTestTestHandler19SetJUnitXMLFileNameERKNSt7__cxx1112basic_stringIcSt11char_traitsIcESaIcEEE(ptr noundef nonnull align 8 dereferenceable(4416) %4, ptr noundef nonnull align 8 dereferenceable(32) %1)
  %5 = load ptr, ptr %0, align 8
  %6 = getelementptr inbounds i8, ptr %5, i64 15123
  store i8 0, ptr %6, align 1
  ret void
}